; Function Attrs: nounwind uwtable
define nonnull ptr @l_Lean_DataValue_sameCtor___boxed(ptr noundef %0, ptr noundef %1) local_unnamed_addr #0 {
  %3 = ptrtoint ptr %0 to i64
  %4 = and i64 %3, 1
  %.not.i.i = icmp eq i64 %4, 0
  br i1 %.not.i.i, label %8, label %5

5:                                                ; preds = %2
  %6 = lshr i64 %3, 1
  %7 = trunc i64 %6 to i32
  br label %lean_obj_tag.exit.i

8:                                                ; preds = %2
  %9 = getelementptr i8, ptr %0, i64 4
  %.val.i.i = load i32, ptr %9, align 4
  %10 = lshr i32 %.val.i.i, 24
  br label %lean_obj_tag.exit.i

lean_obj_tag.exit.i:                              ; preds = %8, %5
  %.0.i.i = phi i32 [ %7, %5 ], [ %10, %8 ]
  %11 = ptrtoint ptr %1 to i64
  %12 = and i64 %11, 1
  %.not.i44.i = icmp eq i64 %12, 0
  switch i32 %.0.i.i, label %53 [
    i32 0, label %13
    i32 1, label %21
    i32 2, label %29
    i32 3, label %37
    i32 4, label %45
  ]

13:                                               ; preds = %lean_obj_tag.exit.i
  br i1 %.not.i44.i, label %17, label %14

14:                                               ; preds = %13
  %15 = lshr i64 %11, 1
  %16 = trunc i64 %15 to i32
  br label %lean_obj_tag.exit27.i

17:                                               ; preds = %13
  %18 = getelementptr i8, ptr %1, i64 4
  %.val.i26.i = load i32, ptr %18, align 4
  %19 = lshr i32 %.val.i26.i, 24
  br label %lean_obj_tag.exit27.i

lean_obj_tag.exit27.i:                            ; preds = %17, %14
  %.0.i25.i = phi i32 [ %16, %14 ], [ %19, %17 ]
  %20 = icmp eq i32 %.0.i25.i, 0
  br label %l_Lean_DataValue_sameCtor.exit

21:                                               ; preds = %lean_obj_tag.exit.i
  br i1 %.not.i44.i, label %25, label %22

22:                                               ; preds = %21
  %23 = lshr i64 %11, 1
  %24 = trunc i64 %23 to i32
  br label %lean_obj_tag.exit31.i

25:                                               ; preds = %21
  %26 = getelementptr i8, ptr %1, i64 4
  %.val.i30.i = load i32, ptr %26, align 4
  %27 = lshr i32 %.val.i30.i, 24
  br label %lean_obj_tag.exit31.i

lean_obj_tag.exit31.i:                            ; preds = %25, %22
  %.0.i29.i = phi i32 [ %24, %22 ], [ %27, %25 ]
  %28 = icmp eq i32 %.0.i29.i, 1
  br label %l_Lean_DataValue_sameCtor.exit

29:                                               ; preds = %lean_obj_tag.exit.i
  br i1 %.not.i44.i, label %33, label %30

30:                                               ; preds = %29
  %31 = lshr i64 %11, 1
  %32 = trunc i64 %31 to i32
  br label %lean_obj_tag.exit35.i

33:                                               ; preds = %29
  %34 = getelementptr i8, ptr %1, i64 4
  %.val.i34.i = load i32, ptr %34, align 4
  %35 = lshr i32 %.val.i34.i, 24
  br label %lean_obj_tag.exit35.i

lean_obj_tag.exit35.i:                            ; preds = %33, %30
  %.0.i33.i = phi i32 [ %32, %30 ], [ %35, %33 ]
  %36 = icmp eq i32 %.0.i33.i, 2
  br label %l_Lean_DataValue_sameCtor.exit

37:                                               ; preds = %lean_obj_tag.exit.i
  br i1 %.not.i44.i, label %41, label %38

38:                                               ; preds = %37
  %39 = lshr i64 %11, 1
  %40 = trunc i64 %39 to i32
  br label %lean_obj_tag.exit39.i

41:                                               ; preds = %37
  %42 = getelementptr i8, ptr %1, i64 4
  %.val.i38.i = load i32, ptr %42, align 4
  %43 = lshr i32 %.val.i38.i, 24
  br label %lean_obj_tag.exit39.i

lean_obj_tag.exit39.i:                            ; preds = %41, %38
  %.0.i37.i = phi i32 [ %40, %38 ], [ %43, %41 ]
  %44 = icmp eq i32 %.0.i37.i, 3
  br label %l_Lean_DataValue_sameCtor.exit

45:                                               ; preds = %lean_obj_tag.exit.i
  br i1 %.not.i44.i, label %49, label %46

46:                                               ; preds = %45
  %47 = lshr i64 %11, 1
  %48 = trunc i64 %47 to i32
  br label %lean_obj_tag.exit43.i

49:                                               ; preds = %45
  %50 = getelementptr i8, ptr %1, i64 4
  %.val.i42.i = load i32, ptr %50, align 4
  %51 = lshr i32 %.val.i42.i, 24
  br label %lean_obj_tag.exit43.i

lean_obj_tag.exit43.i:                            ; preds = %49, %46
  %.0.i41.i = phi i32 [ %48, %46 ], [ %51, %49 ]
  %52 = icmp eq i32 %.0.i41.i, 4
  br label %l_Lean_DataValue_sameCtor.exit

53:                                               ; preds = %lean_obj_tag.exit.i
  br i1 %.not.i44.i, label %57, label %54

54:                                               ; preds = %53
  %55 = lshr i64 %11, 1
  %56 = trunc i64 %55 to i32
  br label %lean_obj_tag.exit47.i

57:                                               ; preds = %53
  %58 = getelementptr i8, ptr %1, i64 4
  %.val.i46.i = load i32, ptr %58, align 4
  %59 = lshr i32 %.val.i46.i, 24
  br label %lean_obj_tag.exit47.i

lean_obj_tag.exit47.i:                            ; preds = %57, %54
  %.0.i45.i = phi i32 [ %56, %54 ], [ %59, %57 ]
  %60 = icmp eq i32 %.0.i45.i, 5
  br label %l_Lean_DataValue_sameCtor.exit

l_Lean_DataValue_sameCtor.exit:                   ; preds = %lean_obj_tag.exit27.i, %lean_obj_tag.exit31.i, %lean_obj_tag.exit35.i, %lean_obj_tag.exit39.i, %lean_obj_tag.exit43.i, %lean_obj_tag.exit47.i
  %.0.in.i = phi i1 [ %20, %lean_obj_tag.exit27.i ], [ %28, %lean_obj_tag.exit31.i ], [ %36, %lean_obj_tag.exit35.i ], [ %44, %lean_obj_tag.exit39.i ], [ %52, %lean_obj_tag.exit43.i ], [ %60, %lean_obj_tag.exit47.i ]
  br i1 %.not.i44.i, label %61, label %lean_dec.exit5

61:                                               ; preds = %l_Lean_DataValue_sameCtor.exit
  %62 = load i32, ptr %1, align 4, !tbaa !8
  %63 = icmp sgt i32 %62, 1
  br i1 %63, label %64, label %66, !prof !11

64:                                               ; preds = %61
  %65 = add nsw i32 %62, -1
  store i32 %65, ptr %1, align 4, !tbaa !8
  br label %lean_dec.exit5

66:                                               ; preds = %61
  %.not.i = icmp eq i32 %62, 0
  br i1 %.not.i, label %lean_dec.exit5, label %67

67:                                               ; preds = %66
  tail call void @lean_dec_ref_cold(ptr noundef nonnull %1) #6
  br label %lean_dec.exit5

lean_dec.exit5:                                   ; preds = %67, %66, %64, %l_Lean_DataValue_sameCtor.exit
  br i1 %.not.i.i, label %68, label %lean_dec.exit

68:                                               ; preds = %lean_dec.exit5
  %69 = load i32, ptr %0, align 4, !tbaa !8
  %70 = icmp sgt i32 %69, 1
  br i1 %70, label %71, label %73, !prof !11

71:                                               ; preds = %68
  %72 = add nsw i32 %69, -1
  store i32 %72, ptr %0, align 4, !tbaa !8
  br label %lean_dec.exit

73:                                               ; preds = %68
  %.not.i6 = icmp eq i32 %69, 0
  br i1 %.not.i6, label %lean_dec.exit, label %74

74:                                               ; preds = %73
  tail call void @lean_dec_ref_cold(ptr noundef nonnull %0) #6
  br label %lean_dec.exit

lean_dec.exit:                                    ; preds = %74, %73, %71, %lean_dec.exit5
  %75 = select i1 %.0.in.i, ptr inttoptr (i64 3 to ptr), ptr inttoptr (i64 1 to ptr)
  ret ptr %75
}